; Function Attrs: mustprogress uwtable
define void @_ZN8QuantLib28AndreasenHugeLocalVolAdapterC2EN5boost10shared_ptrINS_30AndreasenHugeVolatilityInterplEEE(ptr noundef nonnull align 8 dereferenceable(88) %this, ptr noundef %vtt, ptr nocapture noundef %localVol) unnamed_addr #6 align 2 personality ptr @__gxx_personality_v0 {
entry:
  %ref.tmp = alloca %"class.QuantLib::DayCounter", align 8
  call void @llvm.lifetime.start.p0(i64 16, ptr nonnull %ref.tmp) #23
  %0 = getelementptr inbounds i8, ptr %vtt, i64 8
  call void @llvm.memset.p0.i64(ptr noundef nonnull align 8 dereferenceable(16) %ref.tmp, i8 0, i64 16, i1 false)
  invoke void @_ZN8QuantLib21LocalVolTermStructureC2ENS_21BusinessDayConventionERKNS_10DayCounterE(ptr noundef nonnull align 8 dereferenceable(68) %this, ptr noundef nonnull %0, i32 noundef 0, ptr noundef nonnull align 8 dereferenceable(16) %ref.tmp)
          to label %invoke.cont unwind label %lpad

invoke.cont:                                      ; preds = %entry
  %pn.i.i = getelementptr inbounds nuw i8, ptr %ref.tmp, i64 8
  %1 = load ptr, ptr %pn.i.i, align 8, !tbaa !31
  %cmp.not.i.i.i = icmp eq ptr %1, null
  br i1 %cmp.not.i.i.i, label %_ZN8QuantLib10DayCounterD2Ev.exit, label %if.then.i.i.i

if.then.i.i.i:                                    ; preds = %invoke.cont
  %use_count_.i.i.i.i = getelementptr inbounds nuw i8, ptr %1, i64 8
  %2 = atomicrmw sub ptr %use_count_.i.i.i.i, i32 1 acq_rel, align 4
  %cmp.i.i.i.i = icmp eq i32 %2, 1
  br i1 %cmp.i.i.i.i, label %if.then.i.i.i.i, label %_ZN8QuantLib10DayCounterD2Ev.exit

if.then.i.i.i.i:                                  ; preds = %if.then.i.i.i
  %vtable.i.i.i.i = load ptr, ptr %1, align 8, !tbaa !49
  %vfn.i.i.i.i = getelementptr inbounds i8, ptr %vtable.i.i.i.i, i64 16
  %3 = load ptr, ptr %vfn.i.i.i.i, align 8
  invoke void %3(ptr noundef nonnull align 8 dereferenceable(16) %1)
          to label %.noexc.i.i.i unwind label %terminate.lpad.i.i.i

.noexc.i.i.i:                                     ; preds = %if.then.i.i.i.i
  %weak_count_.i.i.i.i.i = getelementptr inbounds nuw i8, ptr %1, i64 12
  %4 = atomicrmw sub ptr %weak_count_.i.i.i.i.i, i32 1 acq_rel, align 4
  %cmp.i.i.i.i.i = icmp eq i32 %4, 1
  br i1 %cmp.i.i.i.i.i, label %if.then.i.i.i.i.i, label %_ZN8QuantLib10DayCounterD2Ev.exit

if.then.i.i.i.i.i:                                ; preds = %.noexc.i.i.i
  %vtable.i.i.i.i.i = load ptr, ptr %1, align 8, !tbaa !49
  %vfn.i.i.i.i.i = getelementptr inbounds i8, ptr %vtable.i.i.i.i.i, i64 24
  %5 = load ptr, ptr %vfn.i.i.i.i.i, align 8
  invoke void %5(ptr noundef nonnull align 8 dereferenceable(16) %1)
          to label %_ZN8QuantLib10DayCounterD2Ev.exit unwind label %terminate.lpad.i.i.i

terminate.lpad.i.i.i:                             ; preds = %if.then.i.i.i.i.i, %if.then.i.i.i.i
  %6 = landingpad { ptr, i32 }
          catch ptr null
  %7 = extractvalue { ptr, i32 } %6, 0
  call void @__clang_call_terminate(ptr %7) #24
  unreachable

_ZN8QuantLib10DayCounterD2Ev.exit:                ; preds = %invoke.cont, %if.then.i.i.i, %.noexc.i.i.i, %if.then.i.i.i.i.i
  call void @llvm.lifetime.end.p0(i64 16, ptr nonnull %ref.tmp) #23
  %8 = load ptr, ptr %vtt, align 8
  store ptr %8, ptr %this, align 8, !tbaa !49
  %9 = getelementptr inbounds i8, ptr %vtt, i64 80
  %10 = load ptr, ptr %9, align 8
  %vbase.offset.ptr = getelementptr i8, ptr %8, i64 -24
  %vbase.offset = load i64, ptr %vbase.offset.ptr, align 8
  %add.ptr = getelementptr inbounds i8, ptr %this, i64 %vbase.offset
  store ptr %10, ptr %add.ptr, align 8, !tbaa !49
  %11 = getelementptr inbounds i8, ptr %vtt, i64 88
  %12 = load ptr, ptr %11, align 8
  %vtable3 = load ptr, ptr %this, align 8, !tbaa !49
  %vbase.offset.ptr4 = getelementptr i8, ptr %vtable3, i64 -32
  %vbase.offset5 = load i64, ptr %vbase.offset.ptr4, align 8
  %add.ptr6 = getelementptr inbounds i8, ptr %this, i64 %vbase.offset5
  store ptr %12, ptr %add.ptr6, align 8, !tbaa !49
  %localVol_ = getelementptr inbounds nuw i8, ptr %this, i64 72
  %13 = load ptr, ptr %localVol, align 8, !tbaa !51
  store ptr %13, ptr %localVol_, align 8, !tbaa !51
  %pn.i = getelementptr inbounds nuw i8, ptr %this, i64 80
  %pn3.i = getelementptr inbounds nuw i8, ptr %localVol, i64 8
  %14 = load ptr, ptr %pn3.i, align 8, !tbaa !31
  store ptr %14, ptr %pn.i, align 8, !tbaa !31
  call void @llvm.memset.p0.i64(ptr noundef nonnull align 8 dereferenceable(16) %localVol, i8 0, i64 16, i1 false)
  ret void

lpad:                                             ; preds = %entry
  %15 = landingpad { ptr, i32 }
          cleanup
  call void @_ZN8QuantLib10DayCounterD2Ev(ptr noundef nonnull align 8 dereferenceable(16) %ref.tmp) #23
  call void @llvm.lifetime.end.p0(i64 16, ptr nonnull %ref.tmp) #23
  resume { ptr, i32 } %15
}